; ModuleID = '5/596.c'
source_filename = "5/596.c"
target datalayout = "e-m:e-p270:32:32-p271:32:32-p272:64:64-i64:64-f80:128-n8:16:32:64-S128"
target triple = "x86_64-pc-linux-gnu"

@.str = private unnamed_addr constant [5 x i8] c"%lf\0A\00", align 1
@.str.1 = private unnamed_addr constant [4 x i8] c"%s\0A\00", align 1
@.str.2 = private unnamed_addr constant [6 x i8] c"error\00", align 1
@.str.3 = private unnamed_addr constant [4 x i8] c"yes\00", align 1
@.str.4 = private unnamed_addr constant [3 x i8] c"no\00", align 1

; Function Attrs: noinline nounwind uwtable
define dso_local i32 @main() #0 {
  %1 = alloca i32, align 4
  %2 = alloca i32, align 4
  %3 = alloca double, align 8
  %4 = alloca double, align 8
  %5 = alloca [501 x i8], align 16
  %6 = alloca [501 x i8], align 16
  store i32 0, i32* %1, align 4
  store double 0.000000e+00, double* %4, align 8
  %7 = call i32 (i8*, ...) @__isoc99_scanf(i8* getelementptr inbounds ([5 x i8], [5 x i8]* @.str, i64 0, i64 0), double* %3)
  %8 = getelementptr inbounds [501 x i8], [501 x i8]* %5, i64 0, i64 0
  %9 = call i32 (i8*, ...) @__isoc99_scanf(i8* getelementptr inbounds ([4 x i8], [4 x i8]* @.str.1, i64 0, i64 0), i8* %8)
  %10 = getelementptr inbounds [501 x i8], [501 x i8]* %6, i64 0, i64 0
  %11 = call i32 (i8*, ...) @__isoc99_scanf(i8* getelementptr inbounds ([4 x i8], [4 x i8]* @.str.1, i64 0, i64 0), i8* %10)
  %12 = getelementptr inbounds [501 x i8], [501 x i8]* %5, i64 0, i64 0
  %13 = call i64 @strlen(i8* %12) #3
  %14 = getelementptr inbounds [501 x i8], [501 x i8]* %6, i64 0, i64 0
  %15 = call i64 @strlen(i8* %14) #3
  %16 = icmp ne i64 %13, %15
  br i1 %16, label %17, label %19

17:                                               ; preds = %0
  %18 = call i32 (i8*, ...) @printf(i8* getelementptr inbounds ([6 x i8], [6 x i8]* @.str.2, i64 0, i64 0))
  br label %121

19:                                               ; preds = %0
  store i32 0, i32* %2, align 4
  br label %20

20:                                               ; preds = %102, %19
  %21 = load i32, i32* %2, align 4
  %22 = sext i32 %21 to i64
  %23 = getelementptr inbounds [501 x i8], [501 x i8]* %5, i64 0, i64 %22
  %24 = load i8, i8* %23, align 1
  %25 = sext i8 %24 to i32
  %26 = icmp ne i32 %25, 0
  br i1 %26, label %27, label %105

27:                                               ; preds = %20
  %28 = load i32, i32* %2, align 4
  %29 = sext i32 %28 to i64
  %30 = getelementptr inbounds [501 x i8], [501 x i8]* %6, i64 0, i64 %29
  %31 = load i8, i8* %30, align 1
  %32 = sext i8 %31 to i32
  %33 = icmp eq i32 %32, 65
  br i1 %33, label %55, label %34

34:                                               ; preds = %27
  %35 = load i32, i32* %2, align 4
  %36 = sext i32 %35 to i64
  %37 = getelementptr inbounds [501 x i8], [501 x i8]* %6, i64 0, i64 %36
  %38 = load i8, i8* %37, align 1
  %39 = sext i8 %38 to i32
  %40 = icmp eq i32 %39, 84
  br i1 %40, label %55, label %41

41:                                               ; preds = %34
  %42 = load i32, i32* %2, align 4
  %43 = sext i32 %42 to i64
  %44 = getelementptr inbounds [501 x i8], [501 x i8]* %6, i64 0, i64 %43
  %45 = load i8, i8* %44, align 1
  %46 = sext i8 %45 to i32
  %47 = icmp eq i32 %46, 67
  br i1 %47, label %55, label %48

48:                                               ; preds = %41
  %49 = load i32, i32* %2, align 4
  %50 = sext i32 %49 to i64
  %51 = getelementptr inbounds [501 x i8], [501 x i8]* %6, i64 0, i64 %50
  %52 = load i8, i8* %51, align 1
  %53 = sext i8 %52 to i32
  %54 = icmp eq i32 %53, 71
  br i1 %54, label %55, label %99

55:                                               ; preds = %48, %41, %34, %27
  %56 = load i32, i32* %2, align 4
  %57 = sext i32 %56 to i64
  %58 = getelementptr inbounds [501 x i8], [501 x i8]* %5, i64 0, i64 %57
  %59 = load i8, i8* %58, align 1
  %60 = sext i8 %59 to i32
  %61 = icmp eq i32 %60, 65
  br i1 %61, label %83, label %62

62:                                               ; preds = %55
  %63 = load i32, i32* %2, align 4
  %64 = sext i32 %63 to i64
  %65 = getelementptr inbounds [501 x i8], [501 x i8]* %5, i64 0, i64 %64
  %66 = load i8, i8* %65, align 1
  %67 = sext i8 %66 to i32
  %68 = icmp eq i32 %67, 84
  br i1 %68, label %83, label %69

69:                                               ; preds = %62
  %70 = load i32, i32* %2, align 4
  %71 = sext i32 %70 to i64
  %72 = getelementptr inbounds [501 x i8], [501 x i8]* %5, i64 0, i64 %71
  %73 = load i8, i8* %72, align 1
  %74 = sext i8 %73 to i32
  %75 = icmp eq i32 %74, 67
  br i1 %75, label %83, label %76

76:                                               ; preds = %69
  %77 = load i32, i32* %2, align 4
  %78 = sext i32 %77 to i64
  %79 = getelementptr inbounds [501 x i8], [501 x i8]* %5, i64 0, i64 %78
  %80 = load i8, i8* %79, align 1
  %81 = sext i8 %80 to i32
  %82 = icmp eq i32 %81, 71
  br i1 %82, label %83, label %99

83:                                               ; preds = %76, %69, %62, %55
  %84 = load i32, i32* %2, align 4
  %85 = sext i32 %84 to i64
  %86 = getelementptr inbounds [501 x i8], [501 x i8]* %5, i64 0, i64 %85
  %87 = load i8, i8* %86, align 1
  %88 = sext i8 %87 to i32
  %89 = load i32, i32* %2, align 4
  %90 = sext i32 %89 to i64
  %91 = getelementptr inbounds [501 x i8], [501 x i8]* %6, i64 0, i64 %90
  %92 = load i8, i8* %91, align 1
  %93 = sext i8 %92 to i32
  %94 = icmp eq i32 %88, %93
  br i1 %94, label %95, label %98

95:                                               ; preds = %83
  %96 = load double, double* %4, align 8
  %97 = fadd double %96, 1.000000e+00
  store double %97, double* %4, align 8
  br label %98

98:                                               ; preds = %95, %83
  br label %101

99:                                               ; preds = %76, %48
  %100 = call i32 (i8*, ...) @printf(i8* getelementptr inbounds ([6 x i8], [6 x i8]* @.str.2, i64 0, i64 0))
  store i32 0, i32* %1, align 4
  br label %122

101:                                              ; preds = %98
  br label %102

102:                                              ; preds = %101
  %103 = load i32, i32* %2, align 4
  %104 = add nsw i32 %103, 1
  store i32 %104, i32* %2, align 4
  br label %20

105:                                              ; preds = %20
  %106 = getelementptr inbounds [501 x i8], [501 x i8]* %5, i64 0, i64 0
  %107 = call i64 @strlen(i8* %106) #3
  %108 = trunc i64 %107 to i32
  store i32 %108, i32* %2, align 4
  %109 = load double, double* %4, align 8
  %110 = load i32, i32* %2, align 4
  %111 = sitofp i32 %110 to double
  %112 = fdiv double %109, %111
  store double %112, double* %4, align 8
  %113 = load double, double* %4, align 8
  %114 = load double, double* %3, align 8
  %115 = fcmp ogt double %113, %114
  br i1 %115, label %116, label %118

116:                                              ; preds = %105
  %117 = call i32 (i8*, ...) @printf(i8* getelementptr inbounds ([4 x i8], [4 x i8]* @.str.3, i64 0, i64 0))
  br label %120

118:                                              ; preds = %105
  %119 = call i32 (i8*, ...) @printf(i8* getelementptr inbounds ([3 x i8], [3 x i8]* @.str.4, i64 0, i64 0))
  br label %120

120:                                              ; preds = %118, %116
  br label %121

121:                                              ; preds = %120, %17
  store i32 0, i32* %1, align 4
  br label %122

122:                                              ; preds = %121, %99
  %123 = load i32, i32* %1, align 4
  ret i32 %123
}

declare dso_local i32 @__isoc99_scanf(i8*, ...) #1

; Function Attrs: nounwind readonly
declare dso_local i64 @strlen(i8*) #2

declare dso_local i32 @printf(i8*, ...) #1


!llvm.module.flags = !{!0}
!llvm.ident = !{!1}

!0 = !{i32 1, !"wchar_size", i32 4}
!1 = !{!"clang version 10.0.0-4ubuntu1 "}
